target datalayout = "e-m:e-p270:32:32-p271:32:32-p272:64:64-i64:64-i128:128-f80:128-n8:16:32:64-S128"
target triple = "x86_64-unknown-linux-gnu"

%"class.Imf_3_2::SampleCountChannel" = type { %"class.Imf_3_2::ImageChannel", ptr, ptr, ptr, ptr, i64, i64, i64 }
%"class.Imf_3_2::ImageChannel" = type { ptr, ptr, i32, i32, i8, i32, i32, i64 }

; Function Attrs: mustprogress nounwind uwtable
define void @_ZN7Imf_3_218SampleCountChannelD2Ev(ptr noundef nonnull align 8 dereferenceable(104) %this) unnamed_addr #5 align 2 {
entry:
  %this.addr = alloca ptr, align 8
  store ptr %this, ptr %this.addr, align 8
  %this1 = load ptr, ptr %this.addr, align 8
  store ptr getelementptr inbounds ({ [6 x ptr] }, ptr @_ZTVN7Imf_3_218SampleCountChannelE, i32 0, i32 0, i32 2), ptr %this1, align 8
  %_numSamples = getelementptr inbounds %"class.Imf_3_2::SampleCountChannel", ptr %this1, i32 0, i32 1
  %0 = load ptr, ptr %_numSamples, align 8
  %isnull = icmp eq ptr %0, null
  br i1 %isnull, label %delete.end, label %delete.notnull

delete.notnull:                                   ; preds = %entry
  call void @_ZdaPv(ptr noundef %0) #10
  br label %delete.end

delete.end:                                       ; preds = %delete.notnull, %entry
  %_sampleListSizes = getelementptr inbounds %"class.Imf_3_2::SampleCountChannel", ptr %this1, i32 0, i32 3
  %1 = load ptr, ptr %_sampleListSizes, align 8
  %isnull2 = icmp eq ptr %1, null
  br i1 %isnull2, label %delete.end4, label %delete.notnull3

delete.notnull3:                                  ; preds = %delete.end
  call void @_ZdaPv(ptr noundef %1) #10
  br label %delete.end4

delete.end4:                                      ; preds = %delete.notnull3, %delete.end
  %_sampleListPositions = getelementptr inbounds %"class.Imf_3_2::SampleCountChannel", ptr %this1, i32 0, i32 4
  %2 = load ptr, ptr %_sampleListPositions, align 8
  %isnull5 = icmp eq ptr %2, null
  br i1 %isnull5, label %delete.end7, label %delete.notnull6

delete.notnull6:                                  ; preds = %delete.end4
  call void @_ZdaPv(ptr noundef %2) #10
  br label %delete.end7

delete.end7:                                      ; preds = %delete.notnull6, %delete.end4
  call void @_ZN7Imf_3_212ImageChannelD2Ev(ptr noundef nonnull align 8 dereferenceable(48) %this1) #3
  ret void
}