; Function Attrs: mustprogress nounwind uwtable
define void @_ZN7Imf_3_218SampleCountChannelD2Ev(ptr noundef nonnull align 8 dereferenceable(104) %this) unnamed_addr #4 align 2 {
entry:
  store ptr getelementptr inbounds ({ [6 x ptr] }, ptr @_ZTVN7Imf_3_218SampleCountChannelE, i64 0, i32 0, i64 2), ptr %this, align 8
  %_numSamples = getelementptr inbounds i8, ptr %this, i64 48
  %0 = load ptr, ptr %_numSamples, align 8
  %isnull = icmp eq ptr %0, null
  br i1 %isnull, label %delete.end, label %delete.notnull

delete.notnull:                                   ; preds = %entry
  tail call void @_ZdaPv(ptr noundef nonnull %0) #14
  br label %delete.end

delete.end:                                       ; preds = %delete.notnull, %entry
  %_sampleListSizes = getelementptr inbounds i8, ptr %this, i64 64
  %1 = load ptr, ptr %_sampleListSizes, align 8
  %isnull2 = icmp eq ptr %1, null
  br i1 %isnull2, label %delete.end4, label %delete.notnull3

delete.notnull3:                                  ; preds = %delete.end
  tail call void @_ZdaPv(ptr noundef nonnull %1) #14
  br label %delete.end4

delete.end4:                                      ; preds = %delete.notnull3, %delete.end
  %_sampleListPositions = getelementptr inbounds i8, ptr %this, i64 72
  %2 = load ptr, ptr %_sampleListPositions, align 8
  %isnull5 = icmp eq ptr %2, null
  br i1 %isnull5, label %delete.end7, label %delete.notnull6

delete.notnull6:                                  ; preds = %delete.end4
  tail call void @_ZdaPv(ptr noundef nonnull %2) #14
  br label %delete.end7

delete.end7:                                      ; preds = %delete.notnull6, %delete.end4
  tail call void @_ZN7Imf_3_212ImageChannelD2Ev(ptr noundef nonnull align 8 dereferenceable(48) %this) #13
  ret void
}